target datalayout = "e-m:e-p270:32:32-p271:32:32-p272:64:64-i64:64-i128:128-f80:128-n8:16:32:64-S128"
target triple = "x86_64-pc-linux-gnu"

%class.params_ref = type { ptr }
%class.value_sweep = type { ptr, %class.value_generator, %"class.recfun::util", %"class.datatype::util", %class.th_rewriter, %class.ref_vector, %class.ref_vector, %class.ref_vector, i32, i32, %class.random_gen, %class.vector.2, %class.ptr_vector.0, %class.ptr_vector.0, i32, i32 }
%class.value_generator = type { ptr, %class.scoped_ptr_vector }
%class.scoped_ptr_vector = type { %class.ptr_vector }
%class.ptr_vector = type { %class.vector }
%class.vector = type { ptr }
%"class.recfun::util" = type { ptr, i32, ptr }
%"class.datatype::util" = type { ptr, i32, ptr }
%class.th_rewriter = type { ptr, %class.params_ref }
%class.ref_vector = type { %class.ref_vector_core }
%class.ref_vector_core = type { %class.ref_manager_wrapper, %class.ptr_vector.0 }
%class.ref_manager_wrapper = type { ptr }
%class.random_gen = type { i32 }
%class.vector.2 = type { ptr }
%class.ptr_vector.0 = type { %class.vector.1 }
%class.vector.1 = type { ptr }
%"class.ref_vector<expr, ast_manager>::element_ref" = type { ptr, ptr }
%class.ast = type { i32, i32, i32, i32 }

; Function Attrs: mustprogress nounwind uwtable
define linkonce_odr hidden noundef i32 @_ZNK3ast13get_ref_countEv(ptr noundef nonnull align 4 dereferenceable(16) %0) #7 comdat align 2 {
  %2 = alloca ptr, align 8
  store ptr %0, ptr %2, align 8, !tbaa !58
  %3 = load ptr, ptr %2, align 8
  %4 = getelementptr inbounds nuw %class.ast, ptr %3, i32 0, i32 2
  %5 = load i32, ptr %4, align 4, !tbaa !121
  ret i32 %5
}

; Function Attrs: mustprogress nounwind uwtable
define linkonce_odr hidden void @_ZN3ast7dec_refEv(ptr noundef nonnull align 4 dereferenceable(16) %0) #7 comdat align 2 {
  %2 = alloca ptr, align 8
  store ptr %0, ptr %2, align 8, !tbaa !58
  %3 = load ptr, ptr %2, align 8
  %4 = getelementptr inbounds nuw %class.ast, ptr %3, i32 0, i32 2
  %5 = load i32, ptr %4, align 4, !tbaa !121
  %6 = add i32 %5, -1
  store i32 %6, ptr %4, align 4, !tbaa !121
  ret void
}

; Function Attrs: mustprogress nounwind uwtable
define linkonce_odr hidden void @_ZN3ast7inc_refEv(ptr noundef nonnull align 4 dereferenceable(16) %0) #7 comdat align 2 {
  %2 = alloca ptr, align 8
  store ptr %0, ptr %2, align 8, !tbaa !58
  %3 = load ptr, ptr %2, align 8
  %4 = getelementptr inbounds nuw %class.ast, ptr %3, i32 0, i32 2
  %5 = load i32, ptr %4, align 4, !tbaa !121
  %6 = add i32 %5, 1
  store i32 %6, ptr %4, align 4, !tbaa !121
  ret void
}

; Function Attrs: mustprogress uwtable
define linkonce_odr hidden void @_ZN11ast_manager7dec_refEP3ast(ptr noundef nonnull align 8 dereferenceable(976) %0, ptr noundef %1) #4 comdat align 2 {
  %3 = alloca ptr, align 8
  %4 = alloca ptr, align 8
  store ptr %0, ptr %3, align 8, !tbaa !8
  store ptr %1, ptr %4, align 8, !tbaa !58
  %5 = load ptr, ptr %3, align 8
  %6 = load ptr, ptr %4, align 8, !tbaa !58
  %7 = icmp ne ptr %6, null
  br i1 %7, label %8, label %16

8:                                                ; preds = %2
  %9 = load ptr, ptr %4, align 8, !tbaa !58
  call void @_ZN3ast7dec_refEv(ptr noundef nonnull align 4 dereferenceable(16) %9)
  %10 = load ptr, ptr %4, align 8, !tbaa !58
  %11 = call noundef i32 @_ZNK3ast13get_ref_countEv(ptr noundef nonnull align 4 dereferenceable(16) %10)
  %12 = icmp eq i32 %11, 0
  br i1 %12, label %13, label %15

13:                                               ; preds = %8
  %14 = load ptr, ptr %4, align 8, !tbaa !58
  call void @_ZN11ast_manager11delete_nodeEP3ast(ptr noundef nonnull align 8 dereferenceable(976) %5, ptr noundef %14)
  br label %15

15:                                               ; preds = %13, %8
  br label %16

16:                                               ; preds = %15, %2
  ret void
}

; Function Attrs: mustprogress uwtable
define linkonce_odr hidden void @_ZN11ast_manager7inc_refEP3ast(ptr noundef nonnull align 8 dereferenceable(976) %0, ptr noundef %1) #4 comdat align 2 {
  %3 = alloca ptr, align 8
  %4 = alloca ptr, align 8
  store ptr %0, ptr %3, align 8, !tbaa !8
  store ptr %1, ptr %4, align 8, !tbaa !58
  %5 = load ptr, ptr %4, align 8, !tbaa !58
  %6 = icmp ne ptr %5, null
  br i1 %6, label %7, label %9

7:                                                ; preds = %2
  %8 = load ptr, ptr %4, align 8, !tbaa !58
  call void @_ZN3ast7inc_refEv(ptr noundef nonnull align 4 dereferenceable(16) %8)
  br label %9

9:                                                ; preds = %7, %2
  ret void
}

; Function Attrs: mustprogress nounwind uwtable
define linkonce_odr hidden void @_ZN10ref_vectorI4expr11ast_managerE11element_refC2ERPS0_RS1_(ptr noundef nonnull align 8 dereferenceable(16) %0, ptr noundef nonnull align 8 dereferenceable(8) %1, ptr noundef nonnull align 8 dereferenceable(976) %2) unnamed_addr #7 comdat align 2 {
  %4 = alloca ptr, align 8
  %5 = alloca ptr, align 8
  %6 = alloca ptr, align 8
  store ptr %0, ptr %4, align 8, !tbaa !63
  store ptr %1, ptr %5, align 8, !tbaa !84
  store ptr %2, ptr %6, align 8, !tbaa !8
  %7 = load ptr, ptr %4, align 8
  %8 = getelementptr inbounds nuw %"class.ref_vector<expr, ast_manager>::element_ref", ptr %7, i32 0, i32 0
  %9 = load ptr, ptr %5, align 8, !tbaa !84
  store ptr %9, ptr %8, align 8, !tbaa !84
  %10 = getelementptr inbounds nuw %"class.ref_vector<expr, ast_manager>::element_ref", ptr %7, i32 0, i32 1
  %11 = load ptr, ptr %6, align 8, !tbaa !8
  store ptr %11, ptr %10, align 8, !tbaa !8
  ret void
}

; Function Attrs: mustprogress nounwind uwtable
define linkonce_odr hidden void @_ZN6vectorIP4exprLb0EjE6shrinkEj(ptr noundef nonnull align 8 dereferenceable(8) %0, i32 noundef %1) #7 comdat align 2 {
  %3 = alloca ptr, align 8
  %4 = alloca i32, align 4
  store ptr %0, ptr %3, align 8, !tbaa !75
  store i32 %1, ptr %4, align 4, !tbaa !45
  %5 = load ptr, ptr %3, align 8
  %6 = getelementptr inbounds nuw %class.vector.1, ptr %5, i32 0, i32 0
  %7 = load ptr, ptr %6, align 8, !tbaa !77
  %8 = icmp ne ptr %7, null
  br i1 %8, label %9, label %14

9:                                                ; preds = %2
  %10 = load i32, ptr %4, align 4, !tbaa !45
  %11 = getelementptr inbounds nuw %class.vector.1, ptr %5, i32 0, i32 0
  %12 = load ptr, ptr %11, align 8, !tbaa !77
  %13 = getelementptr inbounds i32, ptr %12, i64 -1
  store i32 %10, ptr %13, align 4, !tbaa !45
  br label %15

14:                                               ; preds = %2
  br label %15

15:                                               ; preds = %14, %9
  ret void
}

; Function Attrs: mustprogress uwtable
define linkonce_odr hidden noundef nonnull align 8 dereferenceable(16) ptr @_ZN10ref_vectorI4expr11ast_managerE11element_refaSEPS0_(ptr noundef nonnull align 8 dereferenceable(16) %0, ptr noundef %1) #4 comdat align 2 {
  %3 = alloca ptr, align 8
  %4 = alloca ptr, align 8
  store ptr %0, ptr %3, align 8, !tbaa !63
  store ptr %1, ptr %4, align 8, !tbaa !56
  %5 = load ptr, ptr %3, align 8
  %6 = getelementptr inbounds nuw %"class.ref_vector<expr, ast_manager>::element_ref", ptr %5, i32 0, i32 1
  %7 = load ptr, ptr %6, align 8, !tbaa !65
  %8 = load ptr, ptr %4, align 8, !tbaa !56
  call void @_ZN11ast_manager7inc_refEP3ast(ptr noundef nonnull align 8 dereferenceable(976) %7, ptr noundef %8)
  %9 = getelementptr inbounds nuw %"class.ref_vector<expr, ast_manager>::element_ref", ptr %5, i32 0, i32 1
  %10 = load ptr, ptr %9, align 8, !tbaa !65
  %11 = getelementptr inbounds nuw %"class.ref_vector<expr, ast_manager>::element_ref", ptr %5, i32 0, i32 0
  %12 = load ptr, ptr %11, align 8, !tbaa !67
  %13 = load ptr, ptr %12, align 8, !tbaa !56
  call void @_ZN11ast_manager7dec_refEP3ast(ptr noundef nonnull align 8 dereferenceable(976) %10, ptr noundef %13)
  %14 = load ptr, ptr %4, align 8, !tbaa !56
  %15 = getelementptr inbounds nuw %"class.ref_vector<expr, ast_manager>::element_ref", ptr %5, i32 0, i32 0
  %16 = load ptr, ptr %15, align 8, !tbaa !67
  store ptr %14, ptr %16, align 8, !tbaa !56
  ret ptr %5
}

; Function Attrs: mustprogress uwtable
define linkonce_odr hidden { ptr, ptr } @_ZN10ref_vectorI4expr11ast_managerEixEj(ptr noundef nonnull align 8 dereferenceable(16) %0, i32 noundef %1) #4 comdat align 2 {
  %3 = alloca %"class.ref_vector<expr, ast_manager>::element_ref", align 8
  %4 = alloca ptr, align 8
  %5 = alloca i32, align 4
  store ptr %0, ptr %4, align 8, !tbaa !41
  store i32 %1, ptr %5, align 4, !tbaa !45
  %6 = load ptr, ptr %4, align 8
  %7 = getelementptr inbounds nuw %class.ref_vector_core, ptr %6, i32 0, i32 1
  %8 = load i32, ptr %5, align 4, !tbaa !45
  %9 = call noundef nonnull align 8 dereferenceable(8) ptr @_ZN6vectorIP4exprLb0EjEixEj(ptr noundef nonnull align 8 dereferenceable(8) %7, i32 noundef %8)
  %10 = getelementptr inbounds nuw %class.ref_manager_wrapper, ptr %6, i32 0, i32 0
  %11 = load ptr, ptr %10, align 8, !tbaa !62
  call void @_ZN10ref_vectorI4expr11ast_managerE11element_refC2ERPS0_RS1_(ptr noundef nonnull align 8 dereferenceable(16) %3, ptr noundef nonnull align 8 dereferenceable(8) %9, ptr noundef nonnull align 8 dereferenceable(976) %11)
  %12 = load { ptr, ptr }, ptr %3, align 8
  ret { ptr, ptr } %12
}

; Function Attrs: mustprogress nounwind uwtable
define linkonce_odr hidden noundef i32 @_ZNK3ast6get_idEv(ptr noundef nonnull align 4 dereferenceable(16) %0) #7 comdat align 2 {
  %2 = alloca ptr, align 8
  store ptr %0, ptr %2, align 8, !tbaa !58
  %3 = load ptr, ptr %2, align 8
  %4 = getelementptr inbounds nuw %class.ast, ptr %3, i32 0, i32 0
  %5 = load i32, ptr %4, align 4, !tbaa !60
  ret i32 %5
}

; Function Attrs: mustprogress nounwind uwtable
define linkonce_odr hidden noundef nonnull align 8 dereferenceable(8) ptr @_ZN6vectorIP4exprLb0EjEixEj(ptr noundef nonnull align 8 dereferenceable(8) %0, i32 noundef %1) #7 comdat align 2 {
  %3 = alloca ptr, align 8
  %4 = alloca i32, align 4
  store ptr %0, ptr %3, align 8, !tbaa !75
  store i32 %1, ptr %4, align 4, !tbaa !45
  %5 = load ptr, ptr %3, align 8
  %6 = getelementptr inbounds nuw %class.vector.1, ptr %5, i32 0, i32 0
  %7 = load ptr, ptr %6, align 8, !tbaa !77
  %8 = load i32, ptr %4, align 4, !tbaa !45
  %9 = zext i32 %8 to i64
  %10 = getelementptr inbounds nuw ptr, ptr %7, i64 %9
  ret ptr %10
}

; Function Attrs: mustprogress nounwind uwtable
define linkonce_odr hidden noundef i32 @_ZNK6vectorIP4exprLb0EjE4sizeEv(ptr noundef nonnull align 8 dereferenceable(8) %0) #7 comdat align 2 {
  %2 = alloca i32, align 4
  %3 = alloca ptr, align 8
  store ptr %0, ptr %3, align 8, !tbaa !75
  %4 = load ptr, ptr %3, align 8
  %5 = getelementptr inbounds nuw %class.vector.1, ptr %4, i32 0, i32 0
  %6 = load ptr, ptr %5, align 8, !tbaa !77
  %7 = icmp eq ptr %6, null
  br i1 %7, label %8, label %9

8:                                                ; preds = %1
  store i32 0, ptr %2, align 4
  br label %14

9:                                                ; preds = %1
  %10 = getelementptr inbounds nuw %class.vector.1, ptr %4, i32 0, i32 0
  %11 = load ptr, ptr %10, align 8, !tbaa !77
  %12 = getelementptr inbounds i32, ptr %11, i64 -1
  %13 = load i32, ptr %12, align 4, !tbaa !45
  store i32 %13, ptr %2, align 4
  br label %14

14:                                               ; preds = %9, %8
  %15 = load i32, ptr %2, align 4
  ret i32 %15
}

; Function Attrs: mustprogress uwtable
define hidden void @_ZN11value_sweep8unassignEj(ptr noundef nonnull align 8 dereferenceable(184) %0, i32 noundef %1) #4 align 2 {
  %3 = alloca ptr, align 8
  %4 = alloca i32, align 4
  %5 = alloca i32, align 4
  %6 = alloca ptr, align 8
  %7 = alloca %"class.ref_vector<expr, ast_manager>::element_ref", align 8
  store ptr %0, ptr %3, align 8, !tbaa !3
  store i32 %1, ptr %4, align 4, !tbaa !45
  %8 = load ptr, ptr %3, align 8
  call void @llvm.lifetime.start.p0(i64 4, ptr %5) #3
  %9 = getelementptr inbounds nuw %class.value_sweep, ptr %8, i32 0, i32 12
  %10 = call noundef i32 @_ZNK6vectorIP4exprLb0EjE4sizeEv(ptr noundef nonnull align 8 dereferenceable(8) %9)
  store i32 %10, ptr %5, align 4, !tbaa !45
  br label %11

11:                                               ; preds = %17, %2
  %12 = load i32, ptr %5, align 4, !tbaa !45
  %13 = add i32 %12, -1
  store i32 %13, ptr %5, align 4, !tbaa !45
  %14 = load i32, ptr %4, align 4, !tbaa !45
  %15 = icmp ugt i32 %12, %14
  br i1 %15, label %17, label %16

16:                                               ; preds = %11
  call void @llvm.lifetime.end.p0(i64 4, ptr %5) #3
  br label %31

17:                                               ; preds = %11
  call void @llvm.lifetime.start.p0(i64 8, ptr %6) #3
  %18 = getelementptr inbounds nuw %class.value_sweep, ptr %8, i32 0, i32 12
  %19 = load i32, ptr %5, align 4, !tbaa !45
  %20 = call noundef nonnull align 8 dereferenceable(8) ptr @_ZN6vectorIP4exprLb0EjEixEj(ptr noundef nonnull align 8 dereferenceable(8) %18, i32 noundef %19)
  %21 = load ptr, ptr %20, align 8, !tbaa !56
  store ptr %21, ptr %6, align 8, !tbaa !56
  call void @llvm.lifetime.start.p0(i64 16, ptr %7) #3
  %22 = getelementptr inbounds nuw %class.value_sweep, ptr %8, i32 0, i32 5
  %23 = load ptr, ptr %6, align 8, !tbaa !56
  %24 = call noundef i32 @_ZNK3ast6get_idEv(ptr noundef nonnull align 4 dereferenceable(16) %23)
  %25 = call { ptr, ptr } @_ZN10ref_vectorI4expr11ast_managerEixEj(ptr noundef nonnull align 8 dereferenceable(16) %22, i32 noundef %24)
  %26 = getelementptr inbounds nuw { ptr, ptr }, ptr %7, i32 0, i32 0
  %27 = extractvalue { ptr, ptr } %25, 0
  store ptr %27, ptr %26, align 8
  %28 = getelementptr inbounds nuw { ptr, ptr }, ptr %7, i32 0, i32 1
  %29 = extractvalue { ptr, ptr } %25, 1
  store ptr %29, ptr %28, align 8
  %30 = call noundef nonnull align 8 dereferenceable(16) ptr @_ZN10ref_vectorI4expr11ast_managerE11element_refaSEPS0_(ptr noundef nonnull align 8 dereferenceable(16) %7, ptr noundef null)
  call void @llvm.lifetime.end.p0(i64 16, ptr %7) #3
  call void @llvm.lifetime.end.p0(i64 8, ptr %6) #3
  br label %11, !llvm.loop !73

31:                                               ; preds = %16
  %32 = getelementptr inbounds nuw %class.value_sweep, ptr %8, i32 0, i32 12
  %33 = load i32, ptr %4, align 4, !tbaa !45
  call void @_ZN6vectorIP4exprLb0EjE6shrinkEj(ptr noundef nonnull align 8 dereferenceable(8) %32, i32 noundef %33)
  %34 = load i32, ptr %4, align 4, !tbaa !45
  %35 = getelementptr inbounds nuw %class.value_sweep, ptr %8, i32 0, i32 14
  store i32 %34, ptr %35, align 8, !tbaa !37
  ret void
}