; Function Attrs: mustprogress uwtable
define hidden void @_ZN11value_sweep8unassignEj(ptr noundef nonnull align 8 captures(none) dereferenceable(184) %0, i32 noundef %1) local_unnamed_addr #3 align 2 {
  %3 = getelementptr inbounds nuw i8, ptr %0, i64 160
  %4 = load ptr, ptr %3, align 8, !tbaa !11
  %5 = icmp eq ptr %4, null
  br i1 %5, label %_ZN6vectorIP4exprLb0EjE6shrinkEj.exit, label %_ZNK6vectorIP4exprLb0EjE4sizeEv.exit

_ZNK6vectorIP4exprLb0EjE4sizeEv.exit:             ; preds = %2
  %6 = getelementptr inbounds i8, ptr %4, i64 -4
  %7 = load i32, ptr %6, align 4, !tbaa !38
  %8 = icmp ugt i32 %7, %1
  br i1 %8, label %.lr.ph, label %._crit_edge.thread11

.lr.ph:                                           ; preds = %_ZNK6vectorIP4exprLb0EjE4sizeEv.exit
  %9 = getelementptr inbounds nuw i8, ptr %0, i64 88
  %10 = getelementptr inbounds nuw i8, ptr %0, i64 96
  %11 = zext i32 %7 to i64
  %12 = zext i32 %1 to i64
  br label %16

._crit_edge:                                      ; preds = %_ZN10ref_vectorI4expr11ast_managerE11element_refaSEPS0_.exit
  %.pre = load ptr, ptr %3, align 8, !tbaa !11
  %.not.i = icmp eq ptr %.pre, null
  br i1 %.not.i, label %_ZN6vectorIP4exprLb0EjE6shrinkEj.exit, label %._crit_edge.thread11

._crit_edge.thread11:                             ; preds = %_ZNK6vectorIP4exprLb0EjE4sizeEv.exit, %._crit_edge
  %13 = phi ptr [ %.pre, %._crit_edge ], [ %4, %_ZNK6vectorIP4exprLb0EjE4sizeEv.exit ]
  %14 = getelementptr inbounds i8, ptr %13, i64 -4
  store i32 %1, ptr %14, align 4, !tbaa !38
  br label %_ZN6vectorIP4exprLb0EjE6shrinkEj.exit

_ZN6vectorIP4exprLb0EjE6shrinkEj.exit:            ; preds = %2, %._crit_edge, %._crit_edge.thread11
  %15 = getelementptr inbounds nuw i8, ptr %0, i64 176
  store i32 %1, ptr %15, align 8, !tbaa !71
  ret void

16:                                               ; preds = %.lr.ph, %_ZN10ref_vectorI4expr11ast_managerE11element_refaSEPS0_.exit
  %indvars.iv = phi i64 [ %11, %.lr.ph ], [ %17, %_ZN10ref_vectorI4expr11ast_managerE11element_refaSEPS0_.exit ]
  %17 = add nsw i64 %indvars.iv, -1
  %18 = load ptr, ptr %3, align 8, !tbaa !11
  %19 = getelementptr inbounds nuw ptr, ptr %18, i64 %17
  %20 = load ptr, ptr %19, align 8, !tbaa !39
  %21 = load i32, ptr %20, align 4, !tbaa !52
  %22 = load ptr, ptr %10, align 8, !tbaa !11
  %23 = zext i32 %21 to i64
  %24 = getelementptr inbounds nuw ptr, ptr %22, i64 %23
  %25 = load ptr, ptr %9, align 8, !tbaa !41
  %26 = load ptr, ptr %24, align 8, !tbaa !39
  %.not.i3.i = icmp eq ptr %26, null
  br i1 %.not.i3.i, label %_ZN10ref_vectorI4expr11ast_managerE11element_refaSEPS0_.exit, label %27

27:                                               ; preds = %16
  %28 = getelementptr inbounds nuw i8, ptr %26, i64 8
  %29 = load i32, ptr %28, align 4, !tbaa !42
  %30 = add i32 %29, -1
  store i32 %30, ptr %28, align 4, !tbaa !42
  %31 = icmp eq i32 %30, 0
  br i1 %31, label %32, label %_ZN10ref_vectorI4expr11ast_managerE11element_refaSEPS0_.exit

32:                                               ; preds = %27
  tail call void @_ZN11ast_manager11delete_nodeEP3ast(ptr noundef nonnull align 8 dereferenceable(976) %25, ptr noundef nonnull %26)
  br label %_ZN10ref_vectorI4expr11ast_managerE11element_refaSEPS0_.exit

_ZN10ref_vectorI4expr11ast_managerE11element_refaSEPS0_.exit: ; preds = %16, %27, %32
  store ptr null, ptr %24, align 8, !tbaa !39
  %.wide = icmp ugt i64 %17, %12
  br i1 %.wide, label %16, label %._crit_edge, !llvm.loop !72
}